; ModuleID = '19/1584.c'
source_filename = "19/1584.c"
target datalayout = "e-m:e-p270:32:32-p271:32:32-p272:64:64-i64:64-f80:128-n8:16:32:64-S128"
target triple = "x86_64-pc-linux-gnu"

; Function Attrs: noinline nounwind uwtable
define dso_local void @main() #0 {
  %1 = alloca [201 x i8], align 16
  %2 = alloca [101 x i8], align 16
  %3 = alloca [101 x i8], align 16
  %4 = alloca [100 x [101 x i8]], align 16
  %5 = alloca i32, align 4
  %6 = alloca i32, align 4
  %7 = alloca i32, align 4
  %8 = alloca i32, align 4
  store i32 0, i32* %6, align 4
  store i32 0, i32* %7, align 4
  store i32 0, i32* %8, align 4
  %9 = getelementptr inbounds [201 x i8], [201 x i8]* %1, i64 0, i64 0
  %10 = call i32 (i8*, ...) bitcast (i32 (...)* @gets to i32 (i8*, ...)*)(i8* %9)
  %11 = getelementptr inbounds [101 x i8], [101 x i8]* %2, i64 0, i64 0
  %12 = call i32 (i8*, ...) bitcast (i32 (...)* @gets to i32 (i8*, ...)*)(i8* %11)
  %13 = getelementptr inbounds [101 x i8], [101 x i8]* %3, i64 0, i64 0
  %14 = call i32 (i8*, ...) bitcast (i32 (...)* @gets to i32 (i8*, ...)*)(i8* %13)
  store i32 0, i32* %5, align 4
  br label %15

15:                                               ; preds = %52, %0
  %16 = load i32, i32* %5, align 4
  %17 = sext i32 %16 to i64
  %18 = getelementptr inbounds [201 x i8], [201 x i8]* %1, i64 0, i64 %17
  %19 = load i8, i8* %18, align 1
  %20 = sext i8 %19 to i32
  %21 = icmp ne i32 %20, 0
  br i1 %21, label %22, label %55

22:                                               ; preds = %15
  %23 = load i32, i32* %5, align 4
  %24 = sext i32 %23 to i64
  %25 = getelementptr inbounds [201 x i8], [201 x i8]* %1, i64 0, i64 %24
  %26 = load i8, i8* %25, align 1
  %27 = sext i8 %26 to i32
  %28 = icmp ne i32 %27, 32
  br i1 %28, label %29, label %42

29:                                               ; preds = %22
  %30 = load i32, i32* %5, align 4
  %31 = sext i32 %30 to i64
  %32 = getelementptr inbounds [201 x i8], [201 x i8]* %1, i64 0, i64 %31
  %33 = load i8, i8* %32, align 1
  %34 = load i32, i32* %6, align 4
  %35 = sext i32 %34 to i64
  %36 = getelementptr inbounds [100 x [101 x i8]], [100 x [101 x i8]]* %4, i64 0, i64 %35
  %37 = load i32, i32* %7, align 4
  %38 = sext i32 %37 to i64
  %39 = getelementptr inbounds [101 x i8], [101 x i8]* %36, i64 0, i64 %38
  store i8 %33, i8* %39, align 1
  %40 = load i32, i32* %7, align 4
  %41 = add nsw i32 %40, 1
  store i32 %41, i32* %7, align 4
  br label %51

42:                                               ; preds = %22
  %43 = load i32, i32* %6, align 4
  %44 = sext i32 %43 to i64
  %45 = getelementptr inbounds [100 x [101 x i8]], [100 x [101 x i8]]* %4, i64 0, i64 %44
  %46 = load i32, i32* %7, align 4
  %47 = sext i32 %46 to i64
  %48 = getelementptr inbounds [101 x i8], [101 x i8]* %45, i64 0, i64 %47
  store i8 0, i8* %48, align 1
  %49 = load i32, i32* %6, align 4
  %50 = add nsw i32 %49, 1
  store i32 %50, i32* %6, align 4
  store i32 0, i32* %7, align 4
  br label %51

51:                                               ; preds = %42, %29
  br label %52

52:                                               ; preds = %51
  %53 = load i32, i32* %5, align 4
  %54 = add nsw i32 %53, 1
  store i32 %54, i32* %5, align 4
  br label %15

55:                                               ; preds = %15
  store i32 0, i32* %5, align 4
  br label %56

56:                                               ; preds = %76, %55
  %57 = load i32, i32* %5, align 4
  %58 = load i32, i32* %6, align 4
  %59 = icmp sle i32 %57, %58
  br i1 %59, label %60, label %79

60:                                               ; preds = %56
  %61 = getelementptr inbounds [101 x i8], [101 x i8]* %2, i64 0, i64 0
  %62 = load i32, i32* %5, align 4
  %63 = sext i32 %62 to i64
  %64 = getelementptr inbounds [100 x [101 x i8]], [100 x [101 x i8]]* %4, i64 0, i64 %63
  %65 = getelementptr inbounds [101 x i8], [101 x i8]* %64, i64 0, i64 0
  %66 = call i32 @strcmp(i8* %61, i8* %65) #4
  %67 = icmp eq i32 %66, 0
  br i1 %67, label %68, label %75

68:                                               ; preds = %60
  %69 = load i32, i32* %5, align 4
  %70 = sext i32 %69 to i64
  %71 = getelementptr inbounds [100 x [101 x i8]], [100 x [101 x i8]]* %4, i64 0, i64 %70
  %72 = getelementptr inbounds [101 x i8], [101 x i8]* %71, i64 0, i64 0
  %73 = getelementptr inbounds [101 x i8], [101 x i8]* %3, i64 0, i64 0
  %74 = call i8* @strcpy(i8* %72, i8* %73) #5
  br label %75

75:                                               ; preds = %68, %60
  br label %76

76:                                               ; preds = %75
  %77 = load i32, i32* %5, align 4
  %78 = add nsw i32 %77, 1
  store i32 %78, i32* %5, align 4
  br label %56

79:                                               ; preds = %56
  store i32 0, i32* %5, align 4
  store i32 0, i32* %7, align 4
  br label %80

80:                                               ; preds = %114, %79
  %81 = load i32, i32* %8, align 4
  %82 = load i32, i32* %6, align 4
  %83 = icmp sle i32 %81, %82
  br i1 %83, label %84, label %117

84:                                               ; preds = %80
  %85 = load i32, i32* %8, align 4
  %86 = sext i32 %85 to i64
  %87 = getelementptr inbounds [100 x [101 x i8]], [100 x [101 x i8]]* %4, i64 0, i64 %86
  %88 = load i32, i32* %7, align 4
  %89 = sext i32 %88 to i64
  %90 = getelementptr inbounds [101 x i8], [101 x i8]* %87, i64 0, i64 %89
  %91 = load i8, i8* %90, align 1
  %92 = sext i8 %91 to i32
  %93 = icmp ne i32 %92, 0
  br i1 %93, label %94, label %107

94:                                               ; preds = %84
  %95 = load i32, i32* %8, align 4
  %96 = sext i32 %95 to i64
  %97 = getelementptr inbounds [100 x [101 x i8]], [100 x [101 x i8]]* %4, i64 0, i64 %96
  %98 = load i32, i32* %7, align 4
  %99 = sext i32 %98 to i64
  %100 = getelementptr inbounds [101 x i8], [101 x i8]* %97, i64 0, i64 %99
  %101 = load i8, i8* %100, align 1
  %102 = load i32, i32* %5, align 4
  %103 = sext i32 %102 to i64
  %104 = getelementptr inbounds [201 x i8], [201 x i8]* %1, i64 0, i64 %103
  store i8 %101, i8* %104, align 1
  %105 = load i32, i32* %7, align 4
  %106 = add nsw i32 %105, 1
  store i32 %106, i32* %7, align 4
  br label %113

107:                                              ; preds = %84
  %108 = load i32, i32* %5, align 4
  %109 = sext i32 %108 to i64
  %110 = getelementptr inbounds [201 x i8], [201 x i8]* %1, i64 0, i64 %109
  store i8 32, i8* %110, align 1
  %111 = load i32, i32* %8, align 4
  %112 = add nsw i32 %111, 1
  store i32 %112, i32* %8, align 4
  store i32 0, i32* %7, align 4
  br label %113

113:                                              ; preds = %107, %94
  br label %114

114:                                              ; preds = %113
  %115 = load i32, i32* %5, align 4
  %116 = add nsw i32 %115, 1
  store i32 %116, i32* %5, align 4
  br label %80

117:                                              ; preds = %80
  %118 = load i32, i32* %5, align 4
  %119 = sub nsw i32 %118, 1
  %120 = sext i32 %119 to i64
  %121 = getelementptr inbounds [201 x i8], [201 x i8]* %1, i64 0, i64 %120
  store i8 0, i8* %121, align 1
  %122 = getelementptr inbounds [201 x i8], [201 x i8]* %1, i64 0, i64 0
  %123 = call i32 @puts(i8* %122)
  ret void
}

declare dso_local i32 @gets(...) #1

; Function Attrs: nounwind readonly
declare dso_local i32 @strcmp(i8*, i8*) #2

; Function Attrs: nounwind
declare dso_local i8* @strcpy(i8*, i8*) #3

declare dso_local i32 @puts(i8*) #1


!llvm.module.flags = !{!0}
!llvm.ident = !{!1}

!0 = !{i32 1, !"wchar_size", i32 4}
!1 = !{!"clang version 10.0.0-4ubuntu1 "}
